target datalayout = "e-m:e-p270:32:32-p271:32:32-p272:64:64-i64:64-i128:128-f80:128-n8:16:32:64-S128"
target triple = "x86_64-pc-linux-gnu"

%"class.std::basic_string_view" = type { i64, ptr }
%"class.absl::str_format_internal::FormatSpecTemplate" = type { %"class.absl::UntypedFormatSpec" }
%"class.absl::UntypedFormatSpec" = type { %"class.absl::str_format_internal::UntypedFormatSpecImpl" }
%"class.absl::str_format_internal::UntypedFormatSpecImpl" = type { ptr, i64 }
%"class.absl::Span" = type { ptr, i64 }
%"class.std::initializer_list" = type { ptr, i64 }
%"class.absl::str_format_internal::FormatArgImpl" = type { %"union.absl::str_format_internal::FormatArgImpl::Data", ptr }
%"union.absl::str_format_internal::FormatArgImpl::Data" = type { ptr }

@.str.142 = private unnamed_addr constant [3 x i8] c"%d\00", align 1

; Function Attrs: mustprogress nounwind uwtable
define linkonce_odr dso_local ptr @_ZN4absl19str_format_internal13FormatArgImpl7ManagerIiLNS1_13StoragePolicyE2EE8SetValueERKi(ptr noundef nonnull align 4 dereferenceable(4) %0) #5 comdat align 2 {
  %2 = alloca %"union.absl::str_format_internal::FormatArgImpl::Data", align 8
  %3 = alloca ptr, align 8
  store ptr %0, ptr %3, align 8, !tbaa !167
  %4 = getelementptr inbounds [8 x i8], ptr %2, i64 0, i64 0
  %5 = load ptr, ptr %3, align 8, !tbaa !167
  call void @llvm.memcpy.p0.p0.i64(ptr align 8 %4, ptr align 4 %5, i64 4, i1 false)
  %6 = getelementptr inbounds nuw %"union.absl::str_format_internal::FormatArgImpl::Data", ptr %2, i32 0, i32 0
  %7 = load ptr, ptr %6, align 8
  ret ptr %7
}

; Function Attrs: mustprogress nounwind uwtable
define linkonce_odr dso_local noundef i64 @_ZNKSt17basic_string_viewIcSt11char_traitsIcEE4sizeEv(ptr noundef nonnull align 8 dereferenceable(16) %0) #5 comdat align 2 {
  %2 = alloca ptr, align 8
  store ptr %0, ptr %2, align 8, !tbaa !212
  %3 = load ptr, ptr %2, align 8
  %4 = getelementptr inbounds nuw %"class.std::basic_string_view", ptr %3, i32 0, i32 0
  %5 = load i64, ptr %4, align 8, !tbaa !214
  ret i64 %5
}

; Function Attrs: mustprogress nounwind uwtable
define linkonce_odr dso_local noundef ptr @_ZNKSt17basic_string_viewIcSt11char_traitsIcEE4dataEv(ptr noundef nonnull align 8 dereferenceable(16) %0) #5 comdat align 2 {
  %2 = alloca ptr, align 8
  store ptr %0, ptr %2, align 8, !tbaa !212
  %3 = load ptr, ptr %2, align 8
  %4 = getelementptr inbounds nuw %"class.std::basic_string_view", ptr %3, i32 0, i32 1
  %5 = load ptr, ptr %4, align 8, !tbaa !216
  ret ptr %5
}

; Function Attrs: mustprogress nounwind uwtable
define linkonce_odr dso_local void @_ZN4absl4SpanIKNS_19str_format_internal13FormatArgImplEEC2EPS3_m(ptr noundef nonnull align 8 dereferenceable(16) %0, ptr noundef %1, i64 noundef %2) unnamed_addr #5 comdat align 2 {
  %4 = alloca ptr, align 8
  %5 = alloca ptr, align 8
  %6 = alloca i64, align 8
  store ptr %0, ptr %4, align 8, !tbaa !221
  store ptr %1, ptr %5, align 8, !tbaa !220
  store i64 %2, ptr %6, align 8, !tbaa !170
  %7 = load ptr, ptr %4, align 8
  %8 = getelementptr inbounds nuw %"class.absl::Span", ptr %7, i32 0, i32 0
  %9 = load ptr, ptr %5, align 8, !tbaa !220
  store ptr %9, ptr %8, align 8, !tbaa !393
  %10 = getelementptr inbounds nuw %"class.absl::Span", ptr %7, i32 0, i32 1
  %11 = load i64, ptr %6, align 8, !tbaa !170
  store i64 %11, ptr %10, align 8, !tbaa !395
  ret void
}

; Function Attrs: mustprogress nounwind uwtable
define linkonce_odr dso_local noundef i64 @_ZNKSt16initializer_listIN4absl19str_format_internal13FormatArgImplEE4sizeEv(ptr noundef nonnull align 8 dereferenceable(16) %0) #5 comdat align 2 {
  %2 = alloca ptr, align 8
  store ptr %0, ptr %2, align 8, !tbaa !241
  %3 = load ptr, ptr %2, align 8
  %4 = getelementptr inbounds nuw %"class.std::initializer_list", ptr %3, i32 0, i32 1
  %5 = load i64, ptr %4, align 8, !tbaa !174
  ret i64 %5
}

; Function Attrs: mustprogress nounwind uwtable
define linkonce_odr dso_local noundef ptr @_ZNKSt16initializer_listIN4absl19str_format_internal13FormatArgImplEE5beginEv(ptr noundef nonnull align 8 dereferenceable(16) %0) #5 comdat align 2 {
  %2 = alloca ptr, align 8
  store ptr %0, ptr %2, align 8, !tbaa !241
  %3 = load ptr, ptr %2, align 8
  %4 = getelementptr inbounds nuw %"class.std::initializer_list", ptr %3, i32 0, i32 0
  %5 = load ptr, ptr %4, align 8, !tbaa !171
  ret ptr %5
}

; Function Attrs: mustprogress uwtable
define linkonce_odr dso_local void @_ZN4absl19str_format_internal13FormatArgImpl4InitIiEEvRKT_(ptr noundef nonnull align 8 dereferenceable(16) %0, ptr noundef nonnull align 4 dereferenceable(4) %1) #6 comdat align 2 {
  %3 = alloca ptr, align 8
  %4 = alloca ptr, align 8
  %5 = alloca %"union.absl::str_format_internal::FormatArgImpl::Data", align 8
  store ptr %0, ptr %3, align 8, !tbaa !220
  store ptr %1, ptr %4, align 8, !tbaa !167
  %6 = load ptr, ptr %3, align 8
  call void @llvm.lifetime.start.p0(i64 8, ptr %5) #3
  %7 = load ptr, ptr %4, align 8, !tbaa !167
  %8 = call ptr @_ZN4absl19str_format_internal13FormatArgImpl7ManagerIiLNS1_13StoragePolicyE2EE8SetValueERKi(ptr noundef nonnull align 4 dereferenceable(4) %7)
  %9 = getelementptr inbounds nuw %"union.absl::str_format_internal::FormatArgImpl::Data", ptr %5, i32 0, i32 0
  store ptr %8, ptr %9, align 8
  %10 = getelementptr inbounds nuw %"class.absl::str_format_internal::FormatArgImpl", ptr %6, i32 0, i32 0
  call void @llvm.memcpy.p0.p0.i64(ptr align 8 %10, ptr align 8 %5, i64 8, i1 false), !tbaa.struct !223
  call void @llvm.lifetime.end.p0(i64 8, ptr %5) #3
  %11 = getelementptr inbounds nuw %"class.absl::str_format_internal::FormatArgImpl", ptr %6, i32 0, i32 1
  store ptr @_ZN4absl19str_format_internal13FormatArgImpl8DispatchIiEEbNS1_4DataENS0_24FormatConversionSpecImplEPv, ptr %11, align 8, !tbaa !224
  ret void
}

; Function Attrs: mustprogress nounwind uwtable
define linkonce_odr dso_local void @_ZN4absl19str_format_internal21UntypedFormatSpecImplC2ESt17basic_string_viewIcSt11char_traitsIcEE(ptr noundef nonnull align 8 dereferenceable(16) %0, i64 %1, ptr %2) unnamed_addr #5 comdat align 2 {
  %4 = alloca %"class.std::basic_string_view", align 8
  %5 = alloca ptr, align 8
  %6 = getelementptr inbounds nuw { i64, ptr }, ptr %4, i32 0, i32 0
  store i64 %1, ptr %6, align 8
  %7 = getelementptr inbounds nuw { i64, ptr }, ptr %4, i32 0, i32 1
  store ptr %2, ptr %7, align 8
  store ptr %0, ptr %5, align 8, !tbaa !351
  %8 = load ptr, ptr %5, align 8
  %9 = getelementptr inbounds nuw %"class.absl::str_format_internal::UntypedFormatSpecImpl", ptr %8, i32 0, i32 0
  %10 = call noundef ptr @_ZNKSt17basic_string_viewIcSt11char_traitsIcEE4dataEv(ptr noundef nonnull align 8 dereferenceable(16) %4) #3
  store ptr %10, ptr %9, align 8, !tbaa !353
  %11 = getelementptr inbounds nuw %"class.absl::str_format_internal::UntypedFormatSpecImpl", ptr %8, i32 0, i32 1
  %12 = call noundef i64 @_ZNKSt17basic_string_viewIcSt11char_traitsIcEE4sizeEv(ptr noundef nonnull align 8 dereferenceable(16) %4) #3
  store i64 %12, ptr %11, align 8, !tbaa !355
  ret void
}

; Function Attrs: mustprogress nounwind uwtable
define linkonce_odr dso_local noundef i64 @_ZNSt11char_traitsIcE6lengthEPKc(ptr noundef %0) #5 comdat align 2 {
  %2 = alloca ptr, align 8
  store ptr %0, ptr %2, align 8, !tbaa !13
  %3 = load ptr, ptr %2, align 8, !tbaa !13
  %4 = call i64 @strlen(ptr noundef %3) #3
  ret i64 %4
}

; Function Attrs: mustprogress nounwind uwtable
define linkonce_odr dso_local void @_ZN4absl4SpanIKNS_19str_format_internal13FormatArgImplEEC2IS3_S3_EESt16initializer_listIS2_E(ptr noundef nonnull align 8 dereferenceable(16) %0, ptr %1, i64 %2) unnamed_addr #5 comdat align 2 {
  %4 = alloca %"class.std::initializer_list", align 8
  %5 = alloca ptr, align 8
  %6 = getelementptr inbounds nuw { ptr, i64 }, ptr %4, i32 0, i32 0
  store ptr %1, ptr %6, align 8
  %7 = getelementptr inbounds nuw { ptr, i64 }, ptr %4, i32 0, i32 1
  store i64 %2, ptr %7, align 8
  store ptr %0, ptr %5, align 8, !tbaa !221
  %8 = load ptr, ptr %5, align 8
  %9 = call noundef ptr @_ZNKSt16initializer_listIN4absl19str_format_internal13FormatArgImplEE5beginEv(ptr noundef nonnull align 8 dereferenceable(16) %4) #3
  %10 = call noundef i64 @_ZNKSt16initializer_listIN4absl19str_format_internal13FormatArgImplEE4sizeEv(ptr noundef nonnull align 8 dereferenceable(16) %4) #3
  call void @_ZN4absl4SpanIKNS_19str_format_internal13FormatArgImplEEC2EPS3_m(ptr noundef nonnull align 8 dereferenceable(16) %8, ptr noundef %9, i64 noundef %10) #3
  ret void
}

; Function Attrs: mustprogress uwtable
define linkonce_odr dso_local void @_ZN4absl19str_format_internal13FormatArgImplC2IiEERKT_(ptr noundef nonnull align 8 dereferenceable(16) %0, ptr noundef nonnull align 4 dereferenceable(4) %1) unnamed_addr #6 comdat align 2 {
  %3 = alloca ptr, align 8
  %4 = alloca ptr, align 8
  store ptr %0, ptr %3, align 8, !tbaa !220
  store ptr %1, ptr %4, align 8, !tbaa !167
  %5 = load ptr, ptr %3, align 8
  %6 = load ptr, ptr %4, align 8, !tbaa !167
  call void @_ZN4absl19str_format_internal13FormatArgImpl4InitIiEEvRKT_(ptr noundef nonnull align 8 dereferenceable(16) %5, ptr noundef nonnull align 4 dereferenceable(4) %6)
  ret void
}

; Function Attrs: mustprogress nounwind uwtable
define linkonce_odr dso_local noundef nonnull align 8 dereferenceable(16) ptr @_ZN4absl19str_format_internal21UntypedFormatSpecImpl7ExtractINS0_18FormatSpecTemplateIJLNS_23FormatConversionCharSetE655355EEEEEERKS1_RKT_(ptr noundef nonnull align 8 dereferenceable(16) %0) #5 comdat align 2 {
  %2 = alloca ptr, align 8
  store ptr %0, ptr %2, align 8, !tbaa !165
  %3 = load ptr, ptr %2, align 8, !tbaa !165
  %4 = getelementptr inbounds nuw %"class.absl::UntypedFormatSpec", ptr %3, i32 0, i32 0
  ret ptr %4
}

; Function Attrs: mustprogress uwtable
define linkonce_odr dso_local void @_ZN4absl17UntypedFormatSpecC2ESt17basic_string_viewIcSt11char_traitsIcEE(ptr noundef nonnull align 8 dereferenceable(16) %0, i64 %1, ptr %2) unnamed_addr #6 comdat align 2 {
  %4 = alloca %"class.std::basic_string_view", align 8
  %5 = alloca ptr, align 8
  %6 = alloca %"class.std::basic_string_view", align 8
  %7 = getelementptr inbounds nuw { i64, ptr }, ptr %4, i32 0, i32 0
  store i64 %1, ptr %7, align 8
  %8 = getelementptr inbounds nuw { i64, ptr }, ptr %4, i32 0, i32 1
  store ptr %2, ptr %8, align 8
  store ptr %0, ptr %5, align 8, !tbaa !347
  %9 = load ptr, ptr %5, align 8
  %10 = getelementptr inbounds nuw %"class.absl::UntypedFormatSpec", ptr %9, i32 0, i32 0
  call void @llvm.memcpy.p0.p0.i64(ptr align 8 %6, ptr align 8 %4, i64 16, i1 false), !tbaa.struct !219
  %11 = getelementptr inbounds nuw { i64, ptr }, ptr %6, i32 0, i32 0
  %12 = load i64, ptr %11, align 8
  %13 = getelementptr inbounds nuw { i64, ptr }, ptr %6, i32 0, i32 1
  %14 = load ptr, ptr %13, align 8
  call void @_ZN4absl19str_format_internal21UntypedFormatSpecImplC2ESt17basic_string_viewIcSt11char_traitsIcEE(ptr noundef nonnull align 8 dereferenceable(16) %10, i64 %12, ptr %14)
  ret void
}

; Function Attrs: mustprogress nounwind uwtable
define linkonce_odr dso_local void @_ZNSt17basic_string_viewIcSt11char_traitsIcEEC2EPKc(ptr noundef nonnull align 8 dereferenceable(16) %0, ptr noundef nonnull %1) unnamed_addr #5 comdat align 2 {
  %3 = alloca ptr, align 8
  %4 = alloca ptr, align 8
  store ptr %0, ptr %3, align 8, !tbaa !212
  store ptr %1, ptr %4, align 8, !tbaa !13
  %5 = load ptr, ptr %3, align 8
  %6 = getelementptr inbounds nuw %"class.std::basic_string_view", ptr %5, i32 0, i32 0
  %7 = load ptr, ptr %4, align 8, !tbaa !13
  %8 = call noundef i64 @_ZNSt11char_traitsIcE6lengthEPKc(ptr noundef %7)
  store i64 %8, ptr %6, align 8, !tbaa !214
  %9 = getelementptr inbounds nuw %"class.std::basic_string_view", ptr %5, i32 0, i32 1
  %10 = load ptr, ptr %4, align 8, !tbaa !13
  store ptr %10, ptr %9, align 8, !tbaa !216
  ret void
}

; Function Attrs: mustprogress uwtable
define linkonce_odr dso_local noundef nonnull align 8 dereferenceable(32) ptr @_ZN4absl15StrAppendFormatIJiEEERNSt7__cxx1112basic_stringIcSt11char_traitsIcESaIcEEEPS6_RKNS_19str_format_internal18FormatSpecTemplateIJXspclsr19str_format_internalE14ArgumentToConvIT_EEEEEEDpRKSB_(ptr noundef %0, ptr noundef nonnull align 8 dereferenceable(16) %1, ptr noundef nonnull align 4 dereferenceable(4) %2) #6 comdat {
  %4 = alloca ptr, align 8
  %5 = alloca ptr, align 8
  %6 = alloca ptr, align 8
  %7 = alloca %"class.absl::str_format_internal::UntypedFormatSpecImpl", align 8
  %8 = alloca %"class.absl::Span", align 8
  %9 = alloca %"class.std::initializer_list", align 8
  %10 = alloca [1 x %"class.absl::str_format_internal::FormatArgImpl"], align 8
  store ptr %0, ptr %4, align 8, !tbaa !11
  store ptr %1, ptr %5, align 8, !tbaa !165
  store ptr %2, ptr %6, align 8, !tbaa !167
  %11 = load ptr, ptr %4, align 8, !tbaa !11
  %12 = load ptr, ptr %5, align 8, !tbaa !165
  %13 = call noundef nonnull align 8 dereferenceable(16) ptr @_ZN4absl19str_format_internal21UntypedFormatSpecImpl7ExtractINS0_18FormatSpecTemplateIJLNS_23FormatConversionCharSetE655355EEEEEERKS1_RKT_(ptr noundef nonnull align 8 dereferenceable(16) %12)
  call void @llvm.memcpy.p0.p0.i64(ptr align 8 %7, ptr align 8 %13, i64 16, i1 false), !tbaa.struct !169
  call void @llvm.lifetime.start.p0(i64 16, ptr %10) #3
  %14 = load ptr, ptr %6, align 8, !tbaa !167
  call void @_ZN4absl19str_format_internal13FormatArgImplC2IiEERKT_(ptr noundef nonnull align 8 dereferenceable(16) %10, ptr noundef nonnull align 4 dereferenceable(4) %14)
  %15 = getelementptr inbounds nuw %"class.std::initializer_list", ptr %9, i32 0, i32 0
  store ptr %10, ptr %15, align 8, !tbaa !171
  %16 = getelementptr inbounds nuw %"class.std::initializer_list", ptr %9, i32 0, i32 1
  store i64 1, ptr %16, align 8, !tbaa !174
  %17 = getelementptr inbounds nuw { ptr, i64 }, ptr %9, i32 0, i32 0
  %18 = load ptr, ptr %17, align 8
  %19 = getelementptr inbounds nuw { ptr, i64 }, ptr %9, i32 0, i32 1
  %20 = load i64, ptr %19, align 8
  call void @_ZN4absl4SpanIKNS_19str_format_internal13FormatArgImplEEC2IS3_S3_EESt16initializer_listIS2_E(ptr noundef nonnull align 8 dereferenceable(16) %8, ptr %18, i64 %20) #3
  %21 = getelementptr inbounds nuw { ptr, i64 }, ptr %7, i32 0, i32 0
  %22 = load ptr, ptr %21, align 8
  %23 = getelementptr inbounds nuw { ptr, i64 }, ptr %7, i32 0, i32 1
  %24 = load i64, ptr %23, align 8
  %25 = getelementptr inbounds nuw { ptr, i64 }, ptr %8, i32 0, i32 0
  %26 = load ptr, ptr %25, align 8
  %27 = getelementptr inbounds nuw { ptr, i64 }, ptr %8, i32 0, i32 1
  %28 = load i64, ptr %27, align 8
  %29 = call noundef nonnull align 8 dereferenceable(32) ptr @_ZN4absl19str_format_internal10AppendPackEPNSt7__cxx1112basic_stringIcSt11char_traitsIcESaIcEEENS0_21UntypedFormatSpecImplENS_4SpanIKNS0_13FormatArgImplEEE(ptr noundef %11, ptr %22, i64 %24, ptr %26, i64 %28)
  call void @llvm.lifetime.end.p0(i64 16, ptr %10) #3
  ret ptr %29
}

; Function Attrs: mustprogress uwtable
define linkonce_odr dso_local void @_ZN4absl19str_format_internal18FormatSpecTemplateIJLNS_23FormatConversionCharSetE655355EEEC2EUa9enable_ifIXclL_ZNS0_15ValidFormatImplIJLS2_655355EEEEbSt17basic_string_viewIcSt11char_traitsIcEEEfL0p_EEEPKc(ptr noundef nonnull align 8 dereferenceable(16) %0, ptr noundef %1) unnamed_addr #6 comdat align 2 {
  %3 = alloca ptr, align 8
  %4 = alloca ptr, align 8
  %5 = alloca %"class.std::basic_string_view", align 8
  store ptr %0, ptr %3, align 8, !tbaa !165
  store ptr %1, ptr %4, align 8, !tbaa !13
  %6 = load ptr, ptr %3, align 8
  %7 = load ptr, ptr %4, align 8, !tbaa !13
  call void @_ZNSt17basic_string_viewIcSt11char_traitsIcEEC2EPKc(ptr noundef nonnull align 8 dereferenceable(16) %5, ptr noundef %7) #3
  %8 = getelementptr inbounds nuw { i64, ptr }, ptr %5, i32 0, i32 0
  %9 = load i64, ptr %8, align 8
  %10 = getelementptr inbounds nuw { i64, ptr }, ptr %5, i32 0, i32 1
  %11 = load ptr, ptr %10, align 8
  call void @_ZN4absl17UntypedFormatSpecC2ESt17basic_string_viewIcSt11char_traitsIcEE(ptr noundef nonnull align 8 dereferenceable(16) %6, i64 %9, ptr %11)
  ret void
}

; Function Attrs: mustprogress uwtable
define dso_local void @_Z29CodegenAbslStrAppendFormatIntPNSt7__cxx1112basic_stringIcSt11char_traitsIcESaIcEEEi(ptr noundef %0, i32 noundef %1) #6 {
  %3 = alloca ptr, align 8
  %4 = alloca i32, align 4
  %5 = alloca %"class.absl::str_format_internal::FormatSpecTemplate", align 8
  store ptr %0, ptr %3, align 8, !tbaa !11
  store i32 %1, ptr %4, align 4, !tbaa !17
  %6 = load ptr, ptr %3, align 8, !tbaa !11
  call void @llvm.lifetime.start.p0(i64 16, ptr %5) #3
  call void @_ZN4absl19str_format_internal18FormatSpecTemplateIJLNS_23FormatConversionCharSetE655355EEEC2EUa9enable_ifIXclL_ZNS0_15ValidFormatImplIJLS2_655355EEEEbSt17basic_string_viewIcSt11char_traitsIcEEEfL0p_EEEPKc(ptr noundef nonnull align 8 dereferenceable(16) %5, ptr noundef @.str.142)
  %7 = call noundef nonnull align 8 dereferenceable(32) ptr @_ZN4absl15StrAppendFormatIJiEEERNSt7__cxx1112basic_stringIcSt11char_traitsIcESaIcEEEPS6_RKNS_19str_format_internal18FormatSpecTemplateIJXspclsr19str_format_internalE14ArgumentToConvIT_EEEEEEDpRKSB_(ptr noundef %6, ptr noundef nonnull align 8 dereferenceable(16) %5, ptr noundef nonnull align 4 dereferenceable(4) %4)
  call void @llvm.lifetime.end.p0(i64 16, ptr %5) #3
  ret void
}